; Function Attrs: nounwind uwtable
define internal fastcc range(i32 -1, 1) i32 @getReadyForQuery(ptr noundef %0) unnamed_addr #0 {
  %2 = alloca i8, align 1
  call void @llvm.lifetime.start.p0(i64 1, ptr nonnull %2) #16
  %3 = call i32 @pqGetc(ptr noundef nonnull %2, ptr noundef %0) #16
  %.not = icmp eq i32 %3, 0
  br i1 %.not, label %4, label %10

4:                                                ; preds = %1
  %5 = load i8, ptr %2, align 1
  %6 = getelementptr inbounds nuw i8, ptr %0, i64 424
  switch i8 %5, label %9 [
    i8 73, label %.sink.split
    i8 84, label %7
    i8 69, label %8
  ]

7:                                                ; preds = %4
  br label %.sink.split

8:                                                ; preds = %4
  br label %.sink.split

9:                                                ; preds = %4
  br label %.sink.split

.sink.split:                                      ; preds = %4, %9, %8, %7
  %.sink = phi i32 [ 2, %7 ], [ 3, %8 ], [ 4, %9 ], [ 0, %4 ]
  store i32 %.sink, ptr %6, align 8
  br label %10

10:                                               ; preds = %.sink.split, %1
  %.0 = phi i32 [ -1, %1 ], [ 0, %.sink.split ]
  call void @llvm.lifetime.end.p0(i64 1, ptr nonnull %2) #16
  ret i32 %.0
}